target datalayout = "e-m:e-p270:32:32-p271:32:32-p272:64:64-i64:64-i128:128-f80:128-n8:16:32:64-S128"
target triple = "x86_64-pc-linux-gnu"

%struct._zend_executor_globals = type { %struct._zval_struct, %struct._zval_struct, [32 x ptr], ptr, ptr, %struct._zend_array, %struct._zend_array, ptr, i32, i32, ptr, ptr, ptr, ptr, ptr, ptr, i64, ptr, ptr, i32, i32, i64, i32, i32, i32, i8, i8, %struct.zend_atomic_bool_s, %struct.zend_atomic_bool_s, ptr, i64, ptr, ptr, %struct._zend_array, %struct._zend_array, i32, i8, %struct._zval_struct, %struct._zval_struct, %struct._zend_stack, %struct._zend_stack, %struct._zend_stack, ptr, i32, i32, i64, ptr, ptr, ptr, %struct._zend_objects_store, ptr, ptr, ptr, [3 x %struct._zend_op], ptr, i8, i8, i64, i32, i32, ptr, [16 x %struct._HashTableIterator], ptr, %union._zend_function, %struct._zend_op, %struct._zend_array, i64, %struct.zend_get_gc_buffer, ptr, ptr, ptr, i64, i8, i32, ptr, ptr, i64, %struct._zend_call_stack, i64, i64, [6 x ptr] }
%struct.zend_atomic_bool_s = type { i8 }
%struct._zval_struct = type { %union._zend_value, %union.anon.3, %union.anon.6 }
%union._zend_value = type { i64 }
%union.anon.3 = type { i32 }
%union.anon.6 = type { i32 }
%struct._zend_stack = type { i32, i32, i32, ptr }
%struct._zend_objects_store = type { ptr, i32, i32, i32 }
%struct._HashTableIterator = type { ptr, i32, i32 }
%union._zend_function = type { %struct._zend_op_array }
%struct._zend_op_array = type { i8, [3 x i8], i32, ptr, ptr, ptr, i32, i32, ptr, ptr, ptr, ptr, i32, i32, i32, i32, ptr, ptr, ptr, ptr, ptr, i32, i32, ptr, ptr, ptr, i32, i32, i32, i32, ptr, ptr, [6 x ptr] }
%struct._zend_op = type { ptr, %union._znode_op, %union._znode_op, %union._znode_op, i32, i32, i8, i8, i8, i8 }
%union._znode_op = type { i32 }
%struct._zend_array = type { %struct._zend_refcounted_h, %union.anon.0, i32, %union.anon.1, i32, i32, i32, i32, i64, ptr }
%struct._zend_refcounted_h = type { i32, %union.anon }
%union.anon = type { i32 }
%union.anon.0 = type { i32 }
%union.anon.1 = type { ptr }
%struct.zend_get_gc_buffer = type { ptr, ptr, ptr }
%struct._zend_call_stack = type { ptr, i64 }
%struct._spl_SplObjectStorage = type { %struct._zend_array, i64, i32, i64, ptr, %struct._zend_object }
%struct._zend_object = type { %struct._zend_refcounted_h, i32, ptr, ptr, ptr, [1 x %struct._zval_struct] }
%struct._spl_SplObjectStorageElement = type { ptr, %struct._zval_struct }
%struct._zend_reference = type { %struct._zend_refcounted_h, %struct._zval_struct, %union.zend_property_info_source_list }
%union.zend_property_info_source_list = type { ptr }
%struct.anon.4 = type { i8, i8, %union.anon.5 }
%union.anon.5 = type { i16 }

@spl_ce_UnexpectedValueException = external global ptr, align 8
@.str = private unnamed_addr constant [17 x i8] c"Object not found\00", align 1
@executor_globals = external global %struct._zend_executor_globals, align 8

; Function Attrs: nounwind uwtable
define internal ptr @spl_object_storage_from_obj(ptr noundef %0) #0 {
  %2 = alloca ptr, align 8
  store ptr %0, ptr %2, align 8
  %3 = load ptr, ptr %2, align 8
  %4 = getelementptr inbounds i8, ptr %3, i64 -88
  ret ptr %4
}

; Function Attrs: nounwind uwtable
define internal ptr @spl_object_storage_read_dimension(ptr noundef %0, ptr noundef %1, i32 noundef %2, ptr noundef %3) #0 {
  %5 = alloca ptr, align 8
  %6 = alloca ptr, align 8
  %7 = alloca i64, align 8
  %8 = alloca ptr, align 8
  %9 = alloca ptr, align 8
  %10 = alloca ptr, align 8
  %11 = alloca ptr, align 8
  %12 = alloca ptr, align 8
  %13 = alloca ptr, align 8
  %14 = alloca ptr, align 8
  %15 = alloca ptr, align 8
  %16 = alloca ptr, align 8
  %17 = alloca i32, align 4
  %18 = alloca ptr, align 8
  %19 = alloca ptr, align 8
  %20 = alloca ptr, align 8
  %21 = alloca ptr, align 8
  %22 = alloca ptr, align 8
  %23 = alloca ptr, align 8
  %24 = alloca ptr, align 8
  %25 = alloca i32, align 4
  store ptr %0, ptr %15, align 8
  store ptr %1, ptr %16, align 8
  store i32 %2, ptr %17, align 4
  store ptr %3, ptr %18, align 8
  %26 = load ptr, ptr %15, align 8
  %27 = call ptr @spl_object_storage_from_obj(ptr noundef %26)
  store ptr %27, ptr %19, align 8
  %28 = load ptr, ptr %16, align 8
  %29 = icmp eq ptr %28, null
  br i1 %29, label %43, label %30

30:                                               ; preds = %4
  %31 = load ptr, ptr %16, align 8
  store ptr %31, ptr %11, align 8
  %32 = load ptr, ptr %11, align 8
  %33 = getelementptr inbounds %struct._zval_struct, ptr %32, i32 0, i32 1
  %34 = load i8, ptr %33, align 8
  %35 = zext i8 %34 to i32
  %36 = icmp ne i32 %35, 8
  br i1 %36, label %43, label %37

37:                                               ; preds = %30
  %38 = load ptr, ptr %19, align 8
  %39 = getelementptr inbounds %struct._spl_SplObjectStorage, ptr %38, i32 0, i32 3
  %40 = load i64, ptr %39, align 8
  %41 = and i64 %40, 1
  %42 = icmp ne i64 %41, 0
  br label %43

43:                                               ; preds = %37, %30, %4
  %44 = phi i1 [ true, %30 ], [ true, %4 ], [ %42, %37 ]
  %45 = xor i1 %44, true
  %46 = xor i1 %45, true
  %47 = zext i1 %46 to i32
  %48 = sext i32 %47 to i64
  %49 = icmp ne i64 %48, 0
  br i1 %49, label %50, label %56

50:                                               ; preds = %43
  %51 = load ptr, ptr %15, align 8
  %52 = load ptr, ptr %16, align 8
  %53 = load i32, ptr %17, align 4
  %54 = load ptr, ptr %18, align 8
  %55 = call ptr @zend_std_read_dimension(ptr noundef %51, ptr noundef %52, i32 noundef %53, ptr noundef %54)
  store ptr %55, ptr %14, align 8
  br label %167

56:                                               ; preds = %43
  %57 = load ptr, ptr %19, align 8
  %58 = getelementptr inbounds %struct._spl_SplObjectStorage, ptr %57, i32 0, i32 0
  %59 = load ptr, ptr %16, align 8
  %60 = getelementptr inbounds %struct._zval_struct, ptr %59, i32 0, i32 0
  %61 = load ptr, ptr %60, align 8
  %62 = getelementptr inbounds %struct._zend_object, ptr %61, i32 0, i32 1
  %63 = load i32, ptr %62, align 8
  %64 = zext i32 %63 to i64
  store ptr %58, ptr %6, align 8
  store i64 %64, ptr %7, align 8
  %65 = load ptr, ptr %6, align 8
  %66 = load i64, ptr %7, align 8
  %67 = call ptr @zend_hash_index_find(ptr noundef %65, i64 noundef %66) #10
  store ptr %67, ptr %8, align 8
  %68 = load ptr, ptr %8, align 8
  %69 = icmp ne ptr %68, null
  br i1 %69, label %70, label %76

70:                                               ; preds = %56
  %71 = load ptr, ptr %8, align 8
  %72 = load ptr, ptr %71, align 8
  %73 = icmp ne ptr %72, null
  call void @llvm.assume(i1 %73)
  %74 = load ptr, ptr %8, align 8
  %75 = load ptr, ptr %74, align 8
  store ptr %75, ptr %5, align 8
  br label %77

76:                                               ; preds = %56
  store ptr null, ptr %5, align 8
  br label %77

77:                                               ; preds = %76, %70
  %78 = load ptr, ptr %5, align 8
  store ptr %78, ptr %20, align 8
  %79 = load ptr, ptr %20, align 8
  %80 = icmp ne ptr %79, null
  br i1 %80, label %88, label %81

81:                                               ; preds = %77
  %82 = load i32, ptr %17, align 4
  %83 = icmp eq i32 %82, 3
  br i1 %83, label %84, label %85

84:                                               ; preds = %81
  store ptr @executor_globals, ptr %14, align 8
  br label %167

85:                                               ; preds = %81
  %86 = load ptr, ptr @spl_ce_UnexpectedValueException, align 8
  %87 = call ptr (ptr, i64, ptr, ...) @zend_throw_exception_ex(ptr noundef %86, i64 noundef 0, ptr noundef @.str)
  store ptr null, ptr %14, align 8
  br label %167

88:                                               ; preds = %77
  br label %89

89:                                               ; preds = %88
  %90 = load ptr, ptr %20, align 8
  %91 = getelementptr inbounds %struct._spl_SplObjectStorageElement, ptr %90, i32 0, i32 1
  store ptr %91, ptr %21, align 8
  %92 = load ptr, ptr %21, align 8
  %93 = getelementptr inbounds %struct._zval_struct, ptr %92, i32 0, i32 1
  %94 = load i32, ptr %93, align 8
  %95 = and i32 %94, 65280
  %96 = icmp ne i32 %95, 0
  br i1 %96, label %97, label %146

97:                                               ; preds = %89
  %98 = load ptr, ptr %21, align 8
  %99 = getelementptr inbounds %struct._zval_struct, ptr %98, i32 0, i32 1
  %100 = load i32, ptr %99, align 8
  %101 = and i32 %100, 255
  %102 = icmp eq i32 %101, 10
  %103 = xor i1 %102, true
  %104 = xor i1 %103, true
  %105 = zext i1 %104 to i32
  %106 = sext i32 %105 to i64
  %107 = icmp ne i64 %106, 0
  br i1 %107, label %108, label %132

108:                                              ; preds = %97
  %109 = load ptr, ptr %21, align 8
  %110 = getelementptr inbounds %struct._zval_struct, ptr %109, i32 0, i32 0
  %111 = load ptr, ptr %110, align 8
  %112 = getelementptr inbounds %struct._zend_reference, ptr %111, i32 0, i32 1
  store ptr %112, ptr %21, align 8
  %113 = load ptr, ptr %21, align 8
  %114 = getelementptr inbounds %struct._zval_struct, ptr %113, i32 0, i32 1
  %115 = load i32, ptr %114, align 8
  %116 = and i32 %115, 65280
  %117 = icmp ne i32 %116, 0
  br i1 %117, label %118, label %131

118:                                              ; preds = %108
  %119 = load ptr, ptr %21, align 8
  store ptr %119, ptr %12, align 8
  %120 = load ptr, ptr %12, align 8
  %121 = getelementptr inbounds %struct._zval_struct, ptr %120, i32 0, i32 1
  %122 = getelementptr inbounds %struct.anon.4, ptr %121, i32 0, i32 1
  %123 = load i8, ptr %122, align 1
  %124 = zext i8 %123 to i32
  %125 = icmp ne i32 %124, 0
  call void @llvm.assume(i1 %125)
  %126 = load ptr, ptr %12, align 8
  %127 = load ptr, ptr %126, align 8
  store ptr %127, ptr %10, align 8
  %128 = load ptr, ptr %10, align 8
  %129 = load i32, ptr %128, align 4
  %130 = add i32 %129, 1
  store i32 %130, ptr %128, align 4
  br label %131

131:                                              ; preds = %118, %108
  br label %145

132:                                              ; preds = %97
  %133 = load ptr, ptr %21, align 8
  store ptr %133, ptr %13, align 8
  %134 = load ptr, ptr %13, align 8
  %135 = getelementptr inbounds %struct._zval_struct, ptr %134, i32 0, i32 1
  %136 = getelementptr inbounds %struct.anon.4, ptr %135, i32 0, i32 1
  %137 = load i8, ptr %136, align 1
  %138 = zext i8 %137 to i32
  %139 = icmp ne i32 %138, 0
  call void @llvm.assume(i1 %139)
  %140 = load ptr, ptr %13, align 8
  %141 = load ptr, ptr %140, align 8
  store ptr %141, ptr %9, align 8
  %142 = load ptr, ptr %9, align 8
  %143 = load i32, ptr %142, align 4
  %144 = add i32 %143, 1
  store i32 %144, ptr %142, align 4
  br label %145

145:                                              ; preds = %132, %131
  br label %146

146:                                              ; preds = %145, %89
  br label %147

147:                                              ; preds = %146
  %148 = load ptr, ptr %18, align 8
  store ptr %148, ptr %22, align 8
  %149 = load ptr, ptr %21, align 8
  store ptr %149, ptr %23, align 8
  %150 = load ptr, ptr %23, align 8
  %151 = getelementptr inbounds %struct._zval_struct, ptr %150, i32 0, i32 0
  %152 = load ptr, ptr %151, align 8
  store ptr %152, ptr %24, align 8
  %153 = load ptr, ptr %23, align 8
  %154 = getelementptr inbounds %struct._zval_struct, ptr %153, i32 0, i32 1
  %155 = load i32, ptr %154, align 8
  store i32 %155, ptr %25, align 4
  br label %156

156:                                              ; preds = %147
  %157 = load ptr, ptr %24, align 8
  %158 = load ptr, ptr %22, align 8
  %159 = getelementptr inbounds %struct._zval_struct, ptr %158, i32 0, i32 0
  store ptr %157, ptr %159, align 8
  %160 = load i32, ptr %25, align 4
  %161 = load ptr, ptr %22, align 8
  %162 = getelementptr inbounds %struct._zval_struct, ptr %161, i32 0, i32 1
  store i32 %160, ptr %162, align 8
  br label %163

163:                                              ; preds = %156
  br label %164

164:                                              ; preds = %163
  br label %165

165:                                              ; preds = %164
  %166 = load ptr, ptr %18, align 8
  store ptr %166, ptr %14, align 8
  br label %167

167:                                              ; preds = %165, %85, %84, %50
  %168 = load ptr, ptr %14, align 8
  ret ptr %168
}