; Function Attrs: nounwind uwtable
define internal ptr @spl_object_storage_read_dimension(ptr noundef %0, ptr noundef %1, i32 noundef %2, ptr noundef %3) #0 {
  %5 = getelementptr inbounds i8, ptr %0, i64 -88
  %6 = icmp eq ptr %1, null
  br i1 %6, label %.critedge, label %7

7:                                                ; preds = %4
  %8 = getelementptr inbounds i8, ptr %1, i64 8
  %9 = load i8, ptr %8, align 8
  %.not = icmp eq i8 %9, 8
  br i1 %.not, label %10, label %.critedge

10:                                               ; preds = %7
  %11 = getelementptr inbounds i8, ptr %0, i64 -16
  %12 = load i64, ptr %11, align 8
  %13 = and i64 %12, 1
  %.not51 = icmp eq i64 %13, 0
  br i1 %.not51, label %15, label %.critedge

.critedge:                                        ; preds = %7, %4, %10
  %14 = tail call ptr @zend_std_read_dimension(ptr noundef %0, ptr noundef %1, i32 noundef %2, ptr noundef %3) #10
  br label %51

15:                                               ; preds = %10
  %16 = load ptr, ptr %1, align 8
  %17 = getelementptr inbounds i8, ptr %16, i64 8
  %18 = load i32, ptr %17, align 8
  %19 = zext i32 %18 to i64
  %20 = tail call ptr @zend_hash_index_find(ptr noundef nonnull %5, i64 noundef %19) #10
  %.not45 = icmp eq ptr %20, null
  br i1 %.not45, label %21, label %26

21:                                               ; preds = %15
  %22 = icmp eq i32 %2, 3
  br i1 %22, label %51, label %23

23:                                               ; preds = %21
  %24 = load ptr, ptr @spl_ce_UnexpectedValueException, align 8
  %25 = tail call ptr (ptr, i64, ptr, ...) @zend_throw_exception_ex(ptr noundef %24, i64 noundef 0, ptr noundef nonnull @.str) #10
  br label %51

26:                                               ; preds = %15
  %27 = load ptr, ptr %20, align 8, !nonnull !4, !noundef !4
  %28 = getelementptr inbounds i8, ptr %27, i64 8
  %29 = getelementptr inbounds i8, ptr %27, i64 16
  %30 = load i32, ptr %29, align 8
  %31 = and i32 %30, 65280
  %.not47 = icmp eq i32 %31, 0
  br i1 %.not47, label %46, label %32

32:                                               ; preds = %26
  %33 = and i32 %30, 255
  %34 = icmp eq i32 %33, 10
  br i1 %34, label %35, label %.sink.split

35:                                               ; preds = %32
  %36 = load ptr, ptr %28, align 8
  %37 = getelementptr inbounds i8, ptr %36, i64 8
  %38 = getelementptr inbounds i8, ptr %36, i64 16
  %39 = load i32, ptr %38, align 8
  %40 = and i32 %39, 65280
  %.not48 = icmp eq i32 %40, 0
  br i1 %.not48, label %46, label %.sink.split

.sink.split:                                      ; preds = %32, %35
  %.sink = phi i32 [ %39, %35 ], [ %30, %32 ]
  %.sink54 = phi ptr [ %37, %35 ], [ %28, %32 ]
  %41 = and i32 %.sink, 65280
  %42 = icmp ne i32 %41, 0
  tail call void @llvm.assume(i1 %42)
  %43 = load ptr, ptr %.sink54, align 8
  %44 = load i32, ptr %43, align 4
  %45 = add i32 %44, 1
  store i32 %45, ptr %43, align 4
  br label %46

46:                                               ; preds = %.sink.split, %26, %35
  %.042 = phi ptr [ %37, %35 ], [ %28, %26 ], [ %.sink54, %.sink.split ]
  %47 = load ptr, ptr %.042, align 8
  %48 = getelementptr inbounds i8, ptr %.042, i64 8
  %49 = load i32, ptr %48, align 8
  store ptr %47, ptr %3, align 8
  %50 = getelementptr inbounds i8, ptr %3, i64 8
  store i32 %49, ptr %50, align 8
  br label %51

51:                                               ; preds = %21, %46, %23, %.critedge
  %.041 = phi ptr [ %14, %.critedge ], [ %3, %46 ], [ null, %23 ], [ @executor_globals, %21 ]
  ret ptr %.041
}